target datalayout = "e-m:e-p270:32:32-p271:32:32-p272:64:64-i64:64-i128:128-f80:128-n8:16:32:64-S128"
target triple = "x86_64-pc-linux-gnu"

; Function Attrs: nounwind uwtable
define internal void @filter16_complex_low(ptr noundef %0, ptr noundef %1, ptr noundef %2, i32 noundef %3) #2 {
  %5 = alloca ptr, align 8
  %6 = alloca ptr, align 8
  %7 = alloca ptr, align 8
  %8 = alloca i32, align 4
  %9 = alloca [4 x ptr], align 16
  %10 = alloca i32, align 4
  store ptr %0, ptr %5, align 8, !tbaa !66
  store ptr %1, ptr %6, align 8, !tbaa !99
  store ptr %2, ptr %7, align 8, !tbaa !100
  store i32 %3, ptr %8, align 4, !tbaa !24
  call void @llvm.lifetime.start.p0(i64 32, ptr %9) #10
  %11 = load ptr, ptr %6, align 8, !tbaa !99
  %12 = getelementptr inbounds ptr, ptr %11, i64 0
  %13 = load ptr, ptr %12, align 8, !tbaa !88
  store ptr %13, ptr %9, align 8, !tbaa !100
  %14 = getelementptr inbounds ptr, ptr %9, i64 1
  %15 = load ptr, ptr %6, align 8, !tbaa !99
  %16 = getelementptr inbounds ptr, ptr %15, i64 1
  %17 = load ptr, ptr %16, align 8, !tbaa !88
  store ptr %17, ptr %14, align 8, !tbaa !100
  %18 = getelementptr inbounds ptr, ptr %9, i64 2
  %19 = load ptr, ptr %6, align 8, !tbaa !99
  %20 = getelementptr inbounds ptr, ptr %19, i64 2
  %21 = load ptr, ptr %20, align 8, !tbaa !88
  store ptr %21, ptr %18, align 8, !tbaa !100
  %22 = getelementptr inbounds ptr, ptr %9, i64 3
  %23 = load ptr, ptr %6, align 8, !tbaa !99
  %24 = getelementptr inbounds ptr, ptr %23, i64 3
  %25 = load ptr, ptr %24, align 8, !tbaa !88
  store ptr %25, ptr %22, align 8, !tbaa !100
  call void @llvm.lifetime.start.p0(i64 4, ptr %10) #10
  %26 = load i32, ptr %8, align 4, !tbaa !24
  %27 = sdiv i32 %26, 2
  store i32 %27, ptr %8, align 4, !tbaa !24
  store i32 0, ptr %10, align 4, !tbaa !24
  br label %28

28:                                               ; preds = %84, %4
  %29 = load i32, ptr %10, align 4, !tbaa !24
  %30 = load i32, ptr %8, align 4, !tbaa !24
  %31 = icmp slt i32 %29, %30
  br i1 %31, label %32, label %87

32:                                               ; preds = %28
  %33 = getelementptr inbounds [4 x ptr], ptr %9, i64 0, i64 0
  %34 = load ptr, ptr %33, align 16, !tbaa !100
  %35 = getelementptr inbounds nuw i16, ptr %34, i32 1
  store ptr %35, ptr %33, align 16, !tbaa !100
  %36 = load i16, ptr %34, align 2, !tbaa !102
  %37 = zext i16 %36 to i32
  %38 = load ptr, ptr %7, align 8, !tbaa !100
  %39 = getelementptr inbounds i16, ptr %38, i64 0
  %40 = load i16, ptr %39, align 2, !tbaa !102
  %41 = sext i16 %40 to i32
  %42 = mul nsw i32 %37, %41
  %43 = load ptr, ptr %5, align 8, !tbaa !66
  store i32 %42, ptr %43, align 4, !tbaa !24
  %44 = getelementptr inbounds [4 x ptr], ptr %9, i64 0, i64 1
  %45 = load ptr, ptr %44, align 8, !tbaa !100
  %46 = getelementptr inbounds nuw i16, ptr %45, i32 1
  store ptr %46, ptr %44, align 8, !tbaa !100
  %47 = load i16, ptr %45, align 2, !tbaa !102
  %48 = zext i16 %47 to i32
  %49 = load ptr, ptr %7, align 8, !tbaa !100
  %50 = getelementptr inbounds i16, ptr %49, i64 1
  %51 = load i16, ptr %50, align 2, !tbaa !102
  %52 = sext i16 %51 to i32
  %53 = mul nsw i32 %48, %52
  %54 = load ptr, ptr %5, align 8, !tbaa !66
  %55 = load i32, ptr %54, align 4, !tbaa !24
  %56 = add nsw i32 %55, %53
  store i32 %56, ptr %54, align 4, !tbaa !24
  %57 = getelementptr inbounds [4 x ptr], ptr %9, i64 0, i64 2
  %58 = load ptr, ptr %57, align 16, !tbaa !100
  %59 = getelementptr inbounds nuw i16, ptr %58, i32 1
  store ptr %59, ptr %57, align 16, !tbaa !100
  %60 = load i16, ptr %58, align 2, !tbaa !102
  %61 = zext i16 %60 to i32
  %62 = load ptr, ptr %7, align 8, !tbaa !100
  %63 = getelementptr inbounds i16, ptr %62, i64 2
  %64 = load i16, ptr %63, align 2, !tbaa !102
  %65 = sext i16 %64 to i32
  %66 = mul nsw i32 %61, %65
  %67 = load ptr, ptr %5, align 8, !tbaa !66
  %68 = load i32, ptr %67, align 4, !tbaa !24
  %69 = add nsw i32 %68, %66
  store i32 %69, ptr %67, align 4, !tbaa !24
  %70 = getelementptr inbounds [4 x ptr], ptr %9, i64 0, i64 3
  %71 = load ptr, ptr %70, align 8, !tbaa !100
  %72 = getelementptr inbounds nuw i16, ptr %71, i32 1
  store ptr %72, ptr %70, align 8, !tbaa !100
  %73 = load i16, ptr %71, align 2, !tbaa !102
  %74 = zext i16 %73 to i32
  %75 = load ptr, ptr %7, align 8, !tbaa !100
  %76 = getelementptr inbounds i16, ptr %75, i64 3
  %77 = load i16, ptr %76, align 2, !tbaa !102
  %78 = sext i16 %77 to i32
  %79 = mul nsw i32 %74, %78
  %80 = load ptr, ptr %5, align 8, !tbaa !66
  %81 = getelementptr inbounds nuw i32, ptr %80, i32 1
  store ptr %81, ptr %5, align 8, !tbaa !66
  %82 = load i32, ptr %80, align 4, !tbaa !24
  %83 = add nsw i32 %82, %79
  store i32 %83, ptr %80, align 4, !tbaa !24
  br label %84

84:                                               ; preds = %32
  %85 = load i32, ptr %10, align 4, !tbaa !24
  %86 = add nsw i32 %85, 1
  store i32 %86, ptr %10, align 4, !tbaa !24
  br label %28, !llvm.loop !110

87:                                               ; preds = %28
  call void @llvm.lifetime.end.p0(i64 4, ptr %10) #10
  call void @llvm.lifetime.end.p0(i64 32, ptr %9) #10
  ret void
}