; Function Attrs: nofree norecurse nosync nounwind memory(read, argmem: readwrite, inaccessiblemem: none) uwtable
define internal void @filter16_complex_low(ptr noundef writeonly captures(none) %0, ptr noundef readonly captures(none) %1, ptr noundef readonly captures(none) %2, i32 noundef %3) #6 {
  %5 = sdiv i32 %3, 2
  %6 = icmp sgt i32 %3, 1
  br i1 %6, label %.lr.ph, label %._crit_edge

.lr.ph:                                           ; preds = %4
  %7 = getelementptr inbounds nuw i8, ptr %1, i64 24
  %8 = load ptr, ptr %7, align 8, !tbaa !78
  %9 = getelementptr inbounds nuw i8, ptr %1, i64 16
  %10 = load ptr, ptr %9, align 8, !tbaa !78
  %11 = getelementptr inbounds nuw i8, ptr %1, i64 8
  %12 = load ptr, ptr %11, align 8, !tbaa !78
  %13 = load ptr, ptr %1, align 8, !tbaa !78
  %14 = load i16, ptr %2, align 2, !tbaa !87
  %15 = sext i16 %14 to i32
  %16 = getelementptr inbounds nuw i8, ptr %2, i64 2
  %17 = load i16, ptr %16, align 2, !tbaa !87
  %18 = sext i16 %17 to i32
  %19 = getelementptr inbounds nuw i8, ptr %2, i64 4
  %20 = load i16, ptr %19, align 2, !tbaa !87
  %21 = sext i16 %20 to i32
  %22 = getelementptr inbounds nuw i8, ptr %2, i64 6
  %23 = load i16, ptr %22, align 2, !tbaa !87
  %24 = sext i16 %23 to i32
  br label %25

25:                                               ; preds = %.lr.ph, %25
  %.021 = phi i32 [ 0, %.lr.ph ], [ %46, %25 ]
  %.sroa.0.020 = phi ptr [ %13, %.lr.ph ], [ %26, %25 ]
  %.sroa.5.019 = phi ptr [ %12, %.lr.ph ], [ %30, %25 ]
  %.sroa.8.018 = phi ptr [ %10, %.lr.ph ], [ %35, %25 ]
  %.sroa.11.017 = phi ptr [ %8, %.lr.ph ], [ %40, %25 ]
  %.01516 = phi ptr [ %0, %.lr.ph ], [ %44, %25 ]
  %26 = getelementptr inbounds nuw i8, ptr %.sroa.0.020, i64 2
  %27 = load i16, ptr %.sroa.0.020, align 2, !tbaa !87
  %28 = zext i16 %27 to i32
  %29 = mul nsw i32 %15, %28
  %30 = getelementptr inbounds nuw i8, ptr %.sroa.5.019, i64 2
  %31 = load i16, ptr %.sroa.5.019, align 2, !tbaa !87
  %32 = zext i16 %31 to i32
  %33 = mul nsw i32 %18, %32
  %34 = add nsw i32 %33, %29
  %35 = getelementptr inbounds nuw i8, ptr %.sroa.8.018, i64 2
  %36 = load i16, ptr %.sroa.8.018, align 2, !tbaa !87
  %37 = zext i16 %36 to i32
  %38 = mul nsw i32 %21, %37
  %39 = add nsw i32 %38, %34
  %40 = getelementptr inbounds nuw i8, ptr %.sroa.11.017, i64 2
  %41 = load i16, ptr %.sroa.11.017, align 2, !tbaa !87
  %42 = zext i16 %41 to i32
  %43 = mul nsw i32 %24, %42
  %44 = getelementptr inbounds nuw i8, ptr %.01516, i64 4
  %45 = add nsw i32 %43, %39
  store i32 %45, ptr %.01516, align 4, !tbaa !58
  %46 = add nuw nsw i32 %.021, 1
  %exitcond.not = icmp eq i32 %46, %5
  br i1 %exitcond.not, label %._crit_edge, label %25, !llvm.loop !95

._crit_edge:                                      ; preds = %25, %4
  ret void
}